; Function Attrs: nounwind uwtable
define internal fastcc void @init_thread_remove_handlers(ptr noundef readnone captures(address) %0) unnamed_addr #0 {
  %2 = tail call i32 @CRYPTO_THREAD_run_once(ptr noundef nonnull @tevent_register_runonce, ptr noundef nonnull @create_global_tevent_register_ossl_) #2
  %3 = icmp eq i32 %2, 0
  %4 = load i32, ptr @create_global_tevent_register_ossl_ret_, align 4
  %5 = icmp eq i32 %4, 0
  %or.cond.i.not = select i1 %3, i1 true, i1 %5
  %6 = load ptr, ptr @glob_tevent_reg, align 8
  %7 = icmp eq ptr %6, null
  %8 = select i1 %or.cond.i.not, i1 true, i1 %7
  br i1 %8, label %27, label %9

9:                                                ; preds = %1
  %10 = getelementptr inbounds nuw i8, ptr %6, i64 8
  %11 = load ptr, ptr %10, align 8, !tbaa !3
  %12 = tail call i32 @CRYPTO_THREAD_write_lock(ptr noundef %11) #2
  %.not = icmp eq i32 %12, 0
  br i1 %.not, label %27, label %.preheader

.preheader:                                       ; preds = %9
  %13 = load ptr, ptr %6, align 8, !tbaa !20
  %14 = tail call i32 @OPENSSL_sk_num(ptr noundef %13) #2
  %15 = icmp sgt i32 %14, 0
  br i1 %15, label %.lr.ph, label %.sink.split

.lr.ph:                                           ; preds = %.preheader, %.critedge
  %.019 = phi i32 [ %21, %.critedge ], [ 0, %.preheader ]
  %16 = load ptr, ptr %6, align 8, !tbaa !20
  %17 = tail call ptr @OPENSSL_sk_value(ptr noundef %16, i32 noundef %.019) #2
  %.not15 = icmp eq ptr %17, %0
  br i1 %.not15, label %18, label %.critedge

18:                                               ; preds = %.lr.ph
  %19 = load ptr, ptr %6, align 8, !tbaa !20
  %20 = tail call ptr @OPENSSL_sk_delete(ptr noundef %19, i32 noundef %.019) #2
  br label %.sink.split

.critedge:                                        ; preds = %.lr.ph
  %21 = add nuw nsw i32 %.019, 1
  %22 = load ptr, ptr %6, align 8, !tbaa !20
  %23 = tail call i32 @OPENSSL_sk_num(ptr noundef %22) #2
  %24 = icmp slt i32 %21, %23
  br i1 %24, label %.lr.ph, label %.sink.split, !llvm.loop !24

.sink.split:                                      ; preds = %.critedge, %.preheader, %18
  %25 = load ptr, ptr %10, align 8, !tbaa !3
  %26 = tail call i32 @CRYPTO_THREAD_unlock(ptr noundef %25) #2
  br label %27

27:                                               ; preds = %.sink.split, %9, %1
  ret void
}